; Function Attrs: mustprogress nounwind uwtable
define hidden void @_ZN3sat3musD2Ev(ptr nocapture noundef nonnull readonly align 8 dereferenceable(44) %this) unnamed_addr #4 align 2 personality ptr @__gxx_personality_v0 {
entry:
  %m_model = getelementptr inbounds i8, ptr %this, i64 32
  %0 = load ptr, ptr %m_model, align 8
  %tobool.not.i.i.i = icmp eq ptr %0, null
  br i1 %tobool.not.i.i.i, label %_ZN7svectorI5lbooljED2Ev.exit, label %if.then.i.i.i

if.then.i.i.i:                                    ; preds = %entry
  %add.ptr.i.i.i.i = getelementptr inbounds i8, ptr %0, i64 -8
  invoke void @_ZN6memory10deallocateEPv(ptr noundef nonnull %add.ptr.i.i.i.i)
          to label %_ZN7svectorI5lbooljED2Ev.exit unwind label %terminate.lpad.i.i

terminate.lpad.i.i:                               ; preds = %if.then.i.i.i
  %1 = landingpad { ptr, i32 }
          catch ptr null
  %2 = extractvalue { ptr, i32 } %1, 0
  tail call void @__clang_call_terminate(ptr %2) #15
  unreachable

_ZN7svectorI5lbooljED2Ev.exit:                    ; preds = %entry, %if.then.i.i.i
  %m_mus = getelementptr inbounds i8, ptr %this, i64 16
  %3 = load ptr, ptr %m_mus, align 8
  %tobool.not.i.i.i1 = icmp eq ptr %3, null
  br i1 %tobool.not.i.i.i1, label %_ZN7svectorIN3sat7literalEjED2Ev.exit, label %if.then.i.i.i2

if.then.i.i.i2:                                   ; preds = %_ZN7svectorI5lbooljED2Ev.exit
  %add.ptr.i.i.i.i3 = getelementptr inbounds i8, ptr %3, i64 -8
  invoke void @_ZN6memory10deallocateEPv(ptr noundef nonnull %add.ptr.i.i.i.i3)
          to label %_ZN7svectorIN3sat7literalEjED2Ev.exit unwind label %terminate.lpad.i.i4

terminate.lpad.i.i4:                              ; preds = %if.then.i.i.i2
  %4 = landingpad { ptr, i32 }
          catch ptr null
  %5 = extractvalue { ptr, i32 } %4, 0
  tail call void @__clang_call_terminate(ptr %5) #15
  unreachable

_ZN7svectorIN3sat7literalEjED2Ev.exit:            ; preds = %_ZN7svectorI5lbooljED2Ev.exit, %if.then.i.i.i2
  %m_core = getelementptr inbounds i8, ptr %this, i64 8
  %6 = load ptr, ptr %m_core, align 8
  %tobool.not.i.i.i5 = icmp eq ptr %6, null
  br i1 %tobool.not.i.i.i5, label %_ZN7svectorIN3sat7literalEjED2Ev.exit9, label %if.then.i.i.i6

if.then.i.i.i6:                                   ; preds = %_ZN7svectorIN3sat7literalEjED2Ev.exit
  %add.ptr.i.i.i.i7 = getelementptr inbounds i8, ptr %6, i64 -8
  invoke void @_ZN6memory10deallocateEPv(ptr noundef nonnull %add.ptr.i.i.i.i7)
          to label %_ZN7svectorIN3sat7literalEjED2Ev.exit9 unwind label %terminate.lpad.i.i8

terminate.lpad.i.i8:                              ; preds = %if.then.i.i.i6
  %7 = landingpad { ptr, i32 }
          catch ptr null
  %8 = extractvalue { ptr, i32 } %7, 0
  tail call void @__clang_call_terminate(ptr %8) #15
  unreachable

_ZN7svectorIN3sat7literalEjED2Ev.exit9:           ; preds = %_ZN7svectorIN3sat7literalEjED2Ev.exit, %if.then.i.i.i6
  ret void
}